target datalayout = "e-m:e-p270:32:32-p271:32:32-p272:64:64-i64:64-i128:128-f80:128-n8:16:32:64-S128"
target triple = "x86_64-unknown-linux-gnu"

%"struct.node::AssertionInfo" = type { ptr, ptr, ptr }
%"class.std::unique_ptr.301" = type { %"struct.std::__uniq_ptr_data.302" }
%"struct.std::__uniq_ptr_data.302" = type { %"class.std::__uniq_ptr_impl.303" }
%"class.std::__uniq_ptr_impl.303" = type { %"class.std::tuple.304" }
%"class.std::tuple.304" = type { %"struct.std::_Tuple_impl.305" }
%"struct.std::_Tuple_impl.305" = type { %"struct.std::_Head_base.308" }
%"struct.std::_Head_base.308" = type { ptr }
%struct.ACCESS_DESCRIPTION_st = type { ptr, ptr }

@_ZZN4node6crypto23SafeX509InfoAccessPrintERKSt10unique_ptrI6bio_stNS_15FunctionDeleterIS2_XadL_Z12BIO_free_allEEEEEP17X509_extension_stE4args = internal constant %"struct.node::AssertionInfo" { ptr @.str.40, ptr @.str.41, ptr @.str.42 }, align 8
@.str.43 = private unnamed_addr constant [2 x i8] c"\0A\00", align 1
@.str.44 = private unnamed_addr constant [6 x i8] c"%s - \00", align 1

; Function Attrs: mustprogress nounwind uwtable
define linkonce_odr dso_local noundef nonnull align 8 dereferenceable(8) ptr @_ZNSt10_Head_baseILm0EP6bio_stLb0EE7_M_headERKS2_(ptr noundef nonnull align 8 dereferenceable(8) %__b) #4 comdat align 2 {
entry:
  %__b.addr = alloca ptr, align 8
  store ptr %__b, ptr %__b.addr, align 8
  %0 = load ptr, ptr %__b.addr, align 8
  %_M_head_impl = getelementptr inbounds %"struct.std::_Head_base.308", ptr %0, i32 0, i32 0
  ret ptr %_M_head_impl
}

; Function Attrs: mustprogress nounwind uwtable
define linkonce_odr dso_local noundef nonnull align 8 dereferenceable(8) ptr @_ZNSt11_Tuple_implILm0EJP6bio_stN4node15FunctionDeleterIS0_XadL_Z12BIO_free_allEEEEEE7_M_headERKS5_(ptr noundef nonnull align 8 dereferenceable(8) %__t) #4 comdat align 2 {
entry:
  %__t.addr = alloca ptr, align 8
  store ptr %__t, ptr %__t.addr, align 8
  %0 = load ptr, ptr %__t.addr, align 8
  %call = call noundef nonnull align 8 dereferenceable(8) ptr @_ZNSt10_Head_baseILm0EP6bio_stLb0EE7_M_headERKS2_(ptr noundef nonnull align 8 dereferenceable(8) %0) #3
  ret ptr %call
}

; Function Attrs: mustprogress nounwind uwtable
define linkonce_odr dso_local noundef nonnull align 8 dereferenceable(8) ptr @_ZSt12__get_helperILm0EP6bio_stJN4node15FunctionDeleterIS0_XadL_Z12BIO_free_allEEEEEERKT0_RKSt11_Tuple_implIXT_EJS5_DpT1_EE(ptr noundef nonnull align 8 dereferenceable(8) %__t) #4 comdat {
entry:
  %__t.addr = alloca ptr, align 8
  store ptr %__t, ptr %__t.addr, align 8
  %0 = load ptr, ptr %__t.addr, align 8
  %call = call noundef nonnull align 8 dereferenceable(8) ptr @_ZNSt11_Tuple_implILm0EJP6bio_stN4node15FunctionDeleterIS0_XadL_Z12BIO_free_allEEEEEE7_M_headERKS5_(ptr noundef nonnull align 8 dereferenceable(8) %0) #3
  ret ptr %call
}

; Function Attrs: mustprogress nounwind uwtable
define linkonce_odr dso_local noundef nonnull align 8 dereferenceable(8) ptr @_ZSt3getILm0EJP6bio_stN4node15FunctionDeleterIS0_XadL_Z12BIO_free_allEEEEEERKNSt13tuple_elementIXT_ESt5tupleIJDpT0_EEE4typeERKS9_(ptr noundef nonnull align 8 dereferenceable(8) %__t) #4 comdat {
entry:
  %__t.addr = alloca ptr, align 8
  store ptr %__t, ptr %__t.addr, align 8
  %0 = load ptr, ptr %__t.addr, align 8
  %call = call noundef nonnull align 8 dereferenceable(8) ptr @_ZSt12__get_helperILm0EP6bio_stJN4node15FunctionDeleterIS0_XadL_Z12BIO_free_allEEEEEERKT0_RKSt11_Tuple_implIXT_EJS5_DpT1_EE(ptr noundef nonnull align 8 dereferenceable(8) %0) #3
  ret ptr %call
}

; Function Attrs: mustprogress nounwind uwtable
define linkonce_odr dso_local noundef ptr @_ZNKSt15__uniq_ptr_implI6bio_stN4node15FunctionDeleterIS0_XadL_Z12BIO_free_allEEEEE6_M_ptrEv(ptr noundef nonnull align 8 dereferenceable(8) %this) #4 comdat align 2 {
entry:
  %this.addr = alloca ptr, align 8
  store ptr %this, ptr %this.addr, align 8
  %this1 = load ptr, ptr %this.addr, align 8
  %_M_t = getelementptr inbounds %"class.std::__uniq_ptr_impl.303", ptr %this1, i32 0, i32 0
  %call = call noundef nonnull align 8 dereferenceable(8) ptr @_ZSt3getILm0EJP6bio_stN4node15FunctionDeleterIS0_XadL_Z12BIO_free_allEEEEEERKNSt13tuple_elementIXT_ESt5tupleIJDpT0_EEE4typeERKS9_(ptr noundef nonnull align 8 dereferenceable(8) %_M_t) #3
  %0 = load ptr, ptr %call, align 8
  ret ptr %0
}

; Function Attrs: mustprogress nounwind uwtable
define internal noundef ptr @_ZL43ossl_check_ACCESS_DESCRIPTION_freefunc_typePFvP21ACCESS_DESCRIPTION_stE(ptr noundef %fr) #4 {
entry:
  %fr.addr = alloca ptr, align 8
  store ptr %fr, ptr %fr.addr, align 8
  %0 = load ptr, ptr %fr.addr, align 8
  ret ptr %0
}

; Function Attrs: mustprogress nounwind uwtable
define internal noundef ptr @_ZL37ossl_check_ACCESS_DESCRIPTION_sk_typeP27stack_st_ACCESS_DESCRIPTION(ptr noundef %sk) #4 {
entry:
  %sk.addr = alloca ptr, align 8
  store ptr %sk, ptr %sk.addr, align 8
  %0 = load ptr, ptr %sk.addr, align 8
  ret ptr %0
}

; Function Attrs: mustprogress nounwind uwtable
define linkonce_odr dso_local noundef ptr @_ZNKSt10unique_ptrI6bio_stN4node15FunctionDeleterIS0_XadL_Z12BIO_free_allEEEEE3getEv(ptr noundef nonnull align 8 dereferenceable(8) %this) #4 comdat align 2 {
entry:
  %this.addr = alloca ptr, align 8
  store ptr %this, ptr %this.addr, align 8
  %this1 = load ptr, ptr %this.addr, align 8
  %_M_t = getelementptr inbounds %"class.std::unique_ptr.301", ptr %this1, i32 0, i32 0
  %call = call noundef ptr @_ZNKSt15__uniq_ptr_implI6bio_stN4node15FunctionDeleterIS0_XadL_Z12BIO_free_allEEEEE6_M_ptrEv(ptr noundef nonnull align 8 dereferenceable(8) %_M_t) #3
  ret ptr %call
}

; Function Attrs: mustprogress nounwind uwtable
define internal noundef ptr @_ZL43ossl_check_const_ACCESS_DESCRIPTION_sk_typePK27stack_st_ACCESS_DESCRIPTION(ptr noundef %sk) #4 {
entry:
  %sk.addr = alloca ptr, align 8
  store ptr %sk, ptr %sk.addr, align 8
  %0 = load ptr, ptr %sk.addr, align 8
  ret ptr %0
}

; Function Attrs: mustprogress nounwind uwtable
define dso_local noundef zeroext i1 @_ZN4node6crypto23SafeX509InfoAccessPrintERKSt10unique_ptrI6bio_stNS_15FunctionDeleterIS2_XadL_Z12BIO_free_allEEEEEP17X509_extension_st(ptr noundef nonnull align 8 dereferenceable(8) %out, ptr noundef %ext) #4 {
entry:
  %retval = alloca i1, align 1
  %out.addr = alloca ptr, align 8
  %ext.addr = alloca ptr, align 8
  %method = alloca ptr, align 8
  %descs = alloca ptr, align 8
  %ok = alloca i8, align 1
  %i = alloca i32, align 4
  %desc = alloca ptr, align 8
  %objtmp = alloca [80 x i8], align 16
  store ptr %out, ptr %out.addr, align 8
  store ptr %ext, ptr %ext.addr, align 8
  %0 = load ptr, ptr %ext.addr, align 8
  %call = call ptr @X509V3_EXT_get(ptr noundef %0)
  store ptr %call, ptr %method, align 8
  br label %do.body

do.body:                                          ; preds = %entry
  %1 = load ptr, ptr %method, align 8
  %call1 = call ptr @X509V3_EXT_get_nid(i32 noundef 177)
  %cmp = icmp eq ptr %1, %call1
  %lnot = xor i1 %cmp, true
  %lnot2 = xor i1 %lnot, true
  %lnot3 = xor i1 %lnot2, true
  br i1 %lnot3, label %if.then, label %if.end

if.then:                                          ; preds = %do.body
  br label %do.body4

do.body4:                                         ; preds = %if.then
  call void @_ZN4node6AssertERKNS_13AssertionInfoE(ptr noundef nonnull align 8 dereferenceable(24) @_ZZN4node6crypto23SafeX509InfoAccessPrintERKSt10unique_ptrI6bio_stNS_15FunctionDeleterIS2_XadL_Z12BIO_free_allEEEEEP17X509_extension_stE4args)
  call void @abort() #15
  unreachable

do.end:                                           ; No predecessors!
  br label %if.end

if.end:                                           ; preds = %do.end, %do.body
  br label %do.end5

do.end5:                                          ; preds = %if.end
  %2 = load ptr, ptr %ext.addr, align 8
  %call6 = call ptr @X509V3_EXT_d2i(ptr noundef %2)
  store ptr %call6, ptr %descs, align 8
  %3 = load ptr, ptr %descs, align 8
  %cmp7 = icmp eq ptr %3, null
  br i1 %cmp7, label %if.then8, label %if.end9

if.then8:                                         ; preds = %do.end5
  store i1 false, ptr %retval, align 1
  br label %return

if.end9:                                          ; preds = %do.end5
  store i8 1, ptr %ok, align 1
  store i32 0, ptr %i, align 4
  br label %for.cond

for.cond:                                         ; preds = %for.inc, %if.end9
  %4 = load i32, ptr %i, align 4
  %5 = load ptr, ptr %descs, align 8
  %call10 = call noundef ptr @_ZL43ossl_check_const_ACCESS_DESCRIPTION_sk_typePK27stack_st_ACCESS_DESCRIPTION(ptr noundef %5)
  %call11 = call i32 @OPENSSL_sk_num(ptr noundef %call10)
  %cmp12 = icmp slt i32 %4, %call11
  br i1 %cmp12, label %for.body, label %for.end

for.body:                                         ; preds = %for.cond
  %6 = load ptr, ptr %descs, align 8
  %call13 = call noundef ptr @_ZL43ossl_check_const_ACCESS_DESCRIPTION_sk_typePK27stack_st_ACCESS_DESCRIPTION(ptr noundef %6)
  %7 = load i32, ptr %i, align 4
  %call14 = call ptr @OPENSSL_sk_value(ptr noundef %call13, i32 noundef %7)
  store ptr %call14, ptr %desc, align 8
  %8 = load i32, ptr %i, align 4
  %cmp15 = icmp ne i32 %8, 0
  br i1 %cmp15, label %if.then16, label %if.end19

if.then16:                                        ; preds = %for.body
  %9 = load ptr, ptr %out.addr, align 8
  %call17 = call noundef ptr @_ZNKSt10unique_ptrI6bio_stN4node15FunctionDeleterIS0_XadL_Z12BIO_free_allEEEEE3getEv(ptr noundef nonnull align 8 dereferenceable(8) %9) #3
  %call18 = call i32 @BIO_write(ptr noundef %call17, ptr noundef @.str.43, i32 noundef 1)
  br label %if.end19

if.end19:                                         ; preds = %if.then16, %for.body
  %arraydecay = getelementptr inbounds [80 x i8], ptr %objtmp, i64 0, i64 0
  %10 = load ptr, ptr %desc, align 8
  %method20 = getelementptr inbounds %struct.ACCESS_DESCRIPTION_st, ptr %10, i32 0, i32 0
  %11 = load ptr, ptr %method20, align 8
  %call21 = call i32 @i2t_ASN1_OBJECT(ptr noundef %arraydecay, i32 noundef 80, ptr noundef %11)
  %12 = load ptr, ptr %out.addr, align 8
  %call22 = call noundef ptr @_ZNKSt10unique_ptrI6bio_stN4node15FunctionDeleterIS0_XadL_Z12BIO_free_allEEEEE3getEv(ptr noundef nonnull align 8 dereferenceable(8) %12) #3
  %arraydecay23 = getelementptr inbounds [80 x i8], ptr %objtmp, i64 0, i64 0
  %call24 = call i32 (ptr, ptr, ...) @BIO_printf(ptr noundef %call22, ptr noundef @.str.44, ptr noundef %arraydecay23)
  %13 = load ptr, ptr %out.addr, align 8
  %14 = load ptr, ptr %desc, align 8
  %location = getelementptr inbounds %struct.ACCESS_DESCRIPTION_st, ptr %14, i32 0, i32 1
  %15 = load ptr, ptr %location, align 8
  %call25 = call noundef zeroext i1 @_ZN4node6cryptoL16PrintGeneralNameERKSt10unique_ptrI6bio_stNS_15FunctionDeleterIS2_XadL_Z12BIO_free_allEEEEEPK15GENERAL_NAME_st(ptr noundef nonnull align 8 dereferenceable(8) %13, ptr noundef %15)
  %frombool = zext i1 %call25 to i8
  store i8 %frombool, ptr %ok, align 1
  br i1 %call25, label %if.end27, label %if.then26

if.then26:                                        ; preds = %if.end19
  br label %for.end

if.end27:                                         ; preds = %if.end19
  br label %for.inc

for.inc:                                          ; preds = %if.end27
  %16 = load i32, ptr %i, align 4
  %inc = add nsw i32 %16, 1
  store i32 %inc, ptr %i, align 4
  br label %for.cond, !llvm.loop !10

for.end:                                          ; preds = %if.then26, %for.cond
  %17 = load ptr, ptr %descs, align 8
  %call28 = call noundef ptr @_ZL37ossl_check_ACCESS_DESCRIPTION_sk_typeP27stack_st_ACCESS_DESCRIPTION(ptr noundef %17)
  %call29 = call noundef ptr @_ZL43ossl_check_ACCESS_DESCRIPTION_freefunc_typePFvP21ACCESS_DESCRIPTION_stE(ptr noundef @ACCESS_DESCRIPTION_free)
  call void @OPENSSL_sk_pop_free(ptr noundef %call28, ptr noundef %call29)
  %18 = load i8, ptr %ok, align 1
  %tobool = trunc i8 %18 to i1
  store i1 %tobool, ptr %retval, align 1
  br label %return

return:                                           ; preds = %for.end, %if.then8
  %19 = load i1, ptr %retval, align 1
  ret i1 %19
}