; Function Attrs: mustprogress nounwind uwtable
define dso_local noundef zeroext i1 @_ZN4node6crypto23SafeX509InfoAccessPrintERKSt10unique_ptrI6bio_stNS_15FunctionDeleterIS2_XadL_Z12BIO_free_allEEEEEP17X509_extension_st(ptr nocapture noundef nonnull readonly align 8 dereferenceable(8) %out, ptr noundef %ext) local_unnamed_addr #3 {
entry:
  %objtmp = alloca [80 x i8], align 16
  %call = tail call ptr @X509V3_EXT_get(ptr noundef %ext) #17
  %call1 = tail call ptr @X509V3_EXT_get_nid(i32 noundef 177) #17
  %cmp.not = icmp eq ptr %call, %call1
  br i1 %cmp.not, label %do.end5, label %do.body4

do.body4:                                         ; preds = %entry
  tail call void @_ZN4node6AssertERKNS_13AssertionInfoE(ptr noundef nonnull align 8 dereferenceable(24) @_ZZN4node6crypto23SafeX509InfoAccessPrintERKSt10unique_ptrI6bio_stNS_15FunctionDeleterIS2_XadL_Z12BIO_free_allEEEEEP17X509_extension_stE4args) #17
  tail call void @abort() #18
  unreachable

do.end5:                                          ; preds = %entry
  %call6 = tail call ptr @X509V3_EXT_d2i(ptr noundef %ext) #17
  %cmp7 = icmp eq ptr %call6, null
  br i1 %cmp7, label %return, label %for.cond.preheader

for.cond.preheader:                               ; preds = %do.end5
  %call1111 = tail call i32 @OPENSSL_sk_num(ptr noundef nonnull %call6) #17
  %cmp1212 = icmp slt i32 %call1111, 1
  br i1 %cmp1212, label %for.end, label %for.body

for.cond:                                         ; preds = %if.end19
  %inc = add nuw nsw i32 %i.013, 1
  %call11 = call i32 @OPENSSL_sk_num(ptr noundef nonnull %call6) #17
  %cmp12.not = icmp slt i32 %inc, %call11
  br i1 %cmp12.not, label %for.body, label %for.end, !llvm.loop !18

for.body:                                         ; preds = %for.cond.preheader, %for.cond
  %i.013 = phi i32 [ %inc, %for.cond ], [ 0, %for.cond.preheader ]
  %call14 = call ptr @OPENSSL_sk_value(ptr noundef nonnull %call6, i32 noundef %i.013) #17
  %cmp15.not = icmp eq i32 %i.013, 0
  br i1 %cmp15.not, label %if.end19, label %if.then16

if.then16:                                        ; preds = %for.body
  %0 = load ptr, ptr %out, align 8
  %call18 = call i32 @BIO_write(ptr noundef %0, ptr noundef nonnull @.str.43, i32 noundef 1) #17
  br label %if.end19

if.end19:                                         ; preds = %if.then16, %for.body
  %1 = load ptr, ptr %call14, align 8
  %call21 = call i32 @i2t_ASN1_OBJECT(ptr noundef nonnull %objtmp, i32 noundef 80, ptr noundef %1) #17
  %2 = load ptr, ptr %out, align 8
  %call24 = call i32 (ptr, ptr, ...) @BIO_printf(ptr noundef %2, ptr noundef nonnull @.str.44, ptr noundef nonnull %objtmp) #17
  %location = getelementptr inbounds i8, ptr %call14, i64 8
  %3 = load ptr, ptr %location, align 8
  %call25 = call fastcc noundef zeroext i1 @_ZN4node6cryptoL16PrintGeneralNameERKSt10unique_ptrI6bio_stNS_15FunctionDeleterIS2_XadL_Z12BIO_free_allEEEEEPK15GENERAL_NAME_st(ptr noundef nonnull align 8 dereferenceable(8) %out, ptr noundef %3)
  br i1 %call25, label %for.cond, label %for.end

for.end:                                          ; preds = %for.cond, %if.end19, %for.cond.preheader
  %cmp12.lcssa = phi i1 [ true, %for.cond.preheader ], [ %call25, %if.end19 ], [ %call25, %for.cond ]
  call void @OPENSSL_sk_pop_free(ptr noundef nonnull %call6, ptr noundef nonnull @ACCESS_DESCRIPTION_free) #17
  br label %return

return:                                           ; preds = %do.end5, %for.end
  %retval.0 = phi i1 [ %cmp12.lcssa, %for.end ], [ false, %do.end5 ]
  ret i1 %retval.0
}